target datalayout = "e-m:e-p270:32:32-p271:32:32-p272:64:64-i64:64-i128:128-f80:128-n8:16:32:64-S128"
target triple = "x86_64-pc-linux-gnu"

@ctxkey = internal global i32 0, align 4
@poolkey = internal global i32 0, align 4

; Function Attrs: nounwind uwtable
define i32 @async_init() #0 {
  %1 = alloca i32, align 4
  %2 = call i32 @CRYPTO_THREAD_init_local(ptr noundef @ctxkey, ptr noundef null)
  %3 = icmp ne i32 %2, 0
  br i1 %3, label %5, label %4

4:                                                ; preds = %0
  store i32 0, ptr %1, align 4
  br label %12

5:                                                ; preds = %0
  %6 = call i32 @CRYPTO_THREAD_init_local(ptr noundef @poolkey, ptr noundef null)
  %7 = icmp ne i32 %6, 0
  br i1 %7, label %10, label %8

8:                                                ; preds = %5
  %9 = call i32 @CRYPTO_THREAD_cleanup_local(ptr noundef @ctxkey)
  store i32 0, ptr %1, align 4
  br label %12

10:                                               ; preds = %5
  %11 = call i32 @async_local_init()
  store i32 %11, ptr %1, align 4
  br label %12

12:                                               ; preds = %10, %8, %4
  %13 = load i32, ptr %1, align 4
  ret i32 %13
}