; Function Attrs: nounwind uwtable
define i32 @async_init() local_unnamed_addr #0 {
  %1 = tail call i32 @CRYPTO_THREAD_init_local(ptr noundef nonnull @ctxkey, ptr noundef null) #8
  %.not = icmp eq i32 %1, 0
  br i1 %.not, label %8, label %2

2:                                                ; preds = %0
  %3 = tail call i32 @CRYPTO_THREAD_init_local(ptr noundef nonnull @poolkey, ptr noundef null) #8
  %.not1 = icmp eq i32 %3, 0
  br i1 %.not1, label %4, label %6

4:                                                ; preds = %2
  %5 = tail call i32 @CRYPTO_THREAD_cleanup_local(ptr noundef nonnull @ctxkey) #8
  br label %8

6:                                                ; preds = %2
  %7 = tail call i32 @async_local_init() #8
  br label %8

8:                                                ; preds = %0, %6, %4
  %.0 = phi i32 [ %7, %6 ], [ 0, %4 ], [ 0, %0 ]
  ret i32 %.0
}